; Function Attrs: nounwind uwtable
define ptr @PKCS5_pbe_set_ex(i32 noundef %0, i32 noundef %1, ptr noundef captures(address_is_null) %2, i32 noundef %3, ptr noundef %4) local_unnamed_addr #1 {
  %6 = tail call ptr @X509_ALGOR_new() #5
  %7 = icmp eq ptr %6, null
  br i1 %7, label %8, label %9

8:                                                ; preds = %5
  tail call void @ERR_new() #5
  tail call void @ERR_set_debug(ptr noundef nonnull @.str.1, i32 noundef 97, ptr noundef nonnull @__func__.PKCS5_pbe_set_ex) #5
  tail call void (i32, i32, ptr, ...) @ERR_set_error(i32 noundef 13, i32 noundef 524299, ptr noundef null) #5
  br label %12

9:                                                ; preds = %5
  %10 = tail call i32 @PKCS5_pbe_set0_algor_ex(ptr noundef nonnull %6, i32 noundef %0, i32 noundef %1, ptr noundef %2, i32 noundef %3, ptr noundef %4)
  %.not = icmp eq i32 %10, 0
  br i1 %.not, label %11, label %12

11:                                               ; preds = %9
  tail call void @X509_ALGOR_free(ptr noundef nonnull %6) #5
  br label %12

12:                                               ; preds = %9, %11, %8
  %.0 = phi ptr [ null, %8 ], [ null, %11 ], [ %6, %9 ]
  ret ptr %.0
}